; Function Attrs: mustprogress nofree norecurse nosync nounwind willreturn memory(read, inaccessiblemem: none) uwtable
define range(i32 -1, 2) i32 @Abc_NodeCompareLevels(ptr noundef readonly captures(none) %0, ptr noundef readonly captures(none) %1) #5 {
  %3 = load ptr, ptr %0, align 8, !tbaa !64
  %4 = getelementptr i8, ptr %3, i64 20
  %.val = load i32, ptr %4, align 4
  %5 = lshr i32 %.val, 12
  %6 = load ptr, ptr %1, align 8, !tbaa !64
  %7 = getelementptr i8, ptr %6, i64 20
  %.val11 = load i32, ptr %7, align 4
  %8 = lshr i32 %.val11, 12
  %9 = icmp samesign ult i32 %5, %8
  br i1 %9, label %18, label %10

10:                                               ; preds = %2
  %.not = icmp eq i32 %5, %8
  br i1 %.not, label %11, label %18

11:                                               ; preds = %10
  %12 = getelementptr inbounds nuw i8, ptr %3, i64 16
  %13 = load i32, ptr %12, align 8, !tbaa !34
  %14 = getelementptr inbounds nuw i8, ptr %6, i64 16
  %15 = load i32, ptr %14, align 8, !tbaa !34
  %16 = icmp slt i32 %13, %15
  br i1 %16, label %18, label %17

17:                                               ; preds = %11
  %.not10 = icmp ne i32 %13, %15
  %. = zext i1 %.not10 to i32
  br label %18

18:                                               ; preds = %17, %11, %10, %2
  %.0 = phi i32 [ -1, %2 ], [ 1, %10 ], [ -1, %11 ], [ %., %17 ]
  ret i32 %.0
}